; Function Attrs: mustprogress uwtable
define hidden noundef nonnull align 8 dereferenceable(28) ptr @_ZN7datalog11rel_context12get_relationEP9func_decl(ptr noundef nonnull align 8 dereferenceable(432) %this, ptr noundef %pred) unnamed_addr #3 align 2 {
entry:
  %vtable = load ptr, ptr %this, align 8
  %vfn = getelementptr inbounds i8, ptr %vtable, i64 192
  %0 = load ptr, ptr %vfn, align 8
  %call = tail call noundef nonnull align 8 dereferenceable(200) ptr %0(ptr noundef nonnull align 8 dereferenceable(432) %this)
  %call2 = tail call noundef nonnull align 8 dereferenceable(28) ptr @_ZN7datalog16relation_manager12get_relationEP9func_decl(ptr noundef nonnull align 8 dereferenceable(200) %call, ptr noundef %pred)
  ret ptr %call2
}